; Function Attrs: mustprogress nofree norecurse nosync nounwind willreturn memory(argmem: read) uwtable
define { ptr, i64 } @_ZNK8facebook5velox10FlatVectorIbE7asRangeEv(ptr nocapture noundef nonnull readonly align 8 dereferenceable(184) %this) local_unnamed_addr #2 align 2 {
entry:
  %rawValues_.i = getelementptr inbounds i8, ptr %this, i64 120
  %0 = load ptr, ptr %rawValues_.i, align 8
  %length_ = getelementptr inbounds i8, ptr %this, i64 56
  %1 = load i32, ptr %length_, align 8
  %.fca.0.insert = insertvalue { ptr, i64 } poison, ptr %0, 0
  %retval.sroa.4.8.insert.ext = zext i32 %1 to i64
  %retval.sroa.4.8.insert.shift = shl nuw i64 %retval.sroa.4.8.insert.ext, 32
  %.fca.1.insert = insertvalue { ptr, i64 } %.fca.0.insert, i64 %retval.sroa.4.8.insert.shift, 1
  ret { ptr, i64 } %.fca.1.insert
}